target datalayout = "e-m:e-p270:32:32-p271:32:32-p272:64:64-i64:64-i128:128-f80:128-n8:16:32:64-S128"
target triple = "x86_64-pc-linux-gnu"

%struct.PS_HintsRec_ = type { ptr, i32, i32, i32, [2 x %struct.PS_DimensionRec_] }
%struct.PS_DimensionRec_ = type { %struct.PS_Hint_TableRec_, %struct.PS_Mask_TableRec_, %struct.PS_Mask_TableRec_ }
%struct.PS_Hint_TableRec_ = type { i32, i32, ptr }
%struct.PS_Mask_TableRec_ = type { i32, i32, ptr }

; Function Attrs: nounwind uwtable
define internal void @ps_dimension_init(ptr noundef %0) #0 {
  %2 = alloca ptr, align 8
  store ptr %0, ptr %2, align 8
  %3 = load ptr, ptr %2, align 8
  %4 = getelementptr inbounds %struct.PS_DimensionRec_, ptr %3, i32 0, i32 0
  %5 = getelementptr inbounds %struct.PS_Hint_TableRec_, ptr %4, i32 0, i32 0
  store i32 0, ptr %5, align 8
  %6 = load ptr, ptr %2, align 8
  %7 = getelementptr inbounds %struct.PS_DimensionRec_, ptr %6, i32 0, i32 1
  %8 = getelementptr inbounds %struct.PS_Mask_TableRec_, ptr %7, i32 0, i32 0
  store i32 0, ptr %8, align 8
  %9 = load ptr, ptr %2, align 8
  %10 = getelementptr inbounds %struct.PS_DimensionRec_, ptr %9, i32 0, i32 2
  %11 = getelementptr inbounds %struct.PS_Mask_TableRec_, ptr %10, i32 0, i32 0
  store i32 0, ptr %11, align 8
  ret void
}

; Function Attrs: nounwind uwtable
define internal void @ps_hints_open(ptr noundef %0, i32 noundef %1) #0 {
  %3 = alloca ptr, align 8
  %4 = alloca i32, align 4
  store ptr %0, ptr %3, align 8
  store i32 %1, ptr %4, align 4
  %5 = load ptr, ptr %3, align 8
  %6 = getelementptr inbounds %struct.PS_HintsRec_, ptr %5, i32 0, i32 1
  store i32 0, ptr %6, align 8
  %7 = load i32, ptr %4, align 4
  %8 = load ptr, ptr %3, align 8
  %9 = getelementptr inbounds %struct.PS_HintsRec_, ptr %8, i32 0, i32 3
  store i32 %7, ptr %9, align 8
  %10 = load ptr, ptr %3, align 8
  %11 = getelementptr inbounds %struct.PS_HintsRec_, ptr %10, i32 0, i32 4
  %12 = getelementptr inbounds [2 x %struct.PS_DimensionRec_], ptr %11, i64 0, i64 0
  call void @ps_dimension_init(ptr noundef %12)
  %13 = load ptr, ptr %3, align 8
  %14 = getelementptr inbounds %struct.PS_HintsRec_, ptr %13, i32 0, i32 4
  %15 = getelementptr inbounds [2 x %struct.PS_DimensionRec_], ptr %14, i64 0, i64 1
  call void @ps_dimension_init(ptr noundef %15)
  ret void
}

; Function Attrs: nounwind uwtable
define internal void @t1_hints_open(ptr noundef %0) #0 {
  %2 = alloca ptr, align 8
  store ptr %0, ptr %2, align 8
  %3 = load ptr, ptr %2, align 8
  call void @ps_hints_open(ptr noundef %3, i32 noundef 1)
  ret void
}