; Function Attrs: mustprogress nofree norecurse nosync nounwind willreturn memory(argmem: write) uwtable
define internal void @t1_hints_open(ptr nocapture noundef writeonly %0) #8 {
  %2 = getelementptr inbounds i8, ptr %0, i64 8
  store i32 0, ptr %2, align 8
  %3 = getelementptr inbounds i8, ptr %0, i64 16
  store i32 1, ptr %3, align 8
  %4 = getelementptr inbounds i8, ptr %0, i64 24
  store i32 0, ptr %4, align 8
  %5 = getelementptr inbounds i8, ptr %0, i64 40
  store i32 0, ptr %5, align 8
  %6 = getelementptr inbounds i8, ptr %0, i64 56
  store i32 0, ptr %6, align 8
  %7 = getelementptr inbounds i8, ptr %0, i64 72
  store i32 0, ptr %7, align 8
  %8 = getelementptr inbounds i8, ptr %0, i64 88
  store i32 0, ptr %8, align 8
  %9 = getelementptr inbounds i8, ptr %0, i64 104
  store i32 0, ptr %9, align 8
  ret void
}